-----BEGIN RSA PRIVATE KEY-----
Proc-Type: 4,ENCRYPTED
DEK-Info: AES-128-CBC,ED4DD4C84229A12F189A676BB0A45D62

ZVRsl+/5SQv2hTA9BBK4kq/kSl1NvhSDQGZ1SGDu6tVl3Lnx90yfzNZCoi7YyFpd
T5ZHQ8BX/gXBqBvhP0LDEgEXqdsSHjRNz7n1EqPEvsbTvV6UFzEs/c5LCdNNx8Lw
zkF1bYM0JSChVw6HhQmP0JtdpGG2OoU8WfQDus+m98QcdWmQfx/BflZt5FPiIY1K
SvsNpyW/pavfgjq8RV2wYStD1JWNlsgmn6DEIVGKUjWtfSsEXev7CFwUj+QrTapX
abzSHdtlEwWvLwJvTuoBtLA4X1jENYmecLA0BfcawhSUx+APsBaDTCeGbi72c0Tx
f/DFJTzp6jsF/Y/9MQV04lHnZYdYF3+m8B2GD2YkLDU/mWt/jfs0sWTBhMIqd/MJ
cMrM3OJse1wsdWfBR2VSHM4faeCBURFx5o/52y7+H09g5ZTVXksSW8dxfuSCohAM
pswD4iWFGdmojwoGWO6PblNyuBi+pC3r9mUSJHma8mHC6RwBe0VbslkagizW8CDA
FiJpf5wh8bVxSoll9sWlD+MyYb2eOnlNZ9ZSRHwaFIC5fmeWfGVaOEXf+U5LotvF
4wr7rAuusBYIqqw9KjC1XKAdwe/EXYa6VTMLsPKxZ912w4yddAyfGUc+zhZKzK60
Iv8Q8RE+nIvpYOUNd4jSD6AjXkEnZzmpOMQrx04EkAZhdKw4ty/Uj2pi8HpAlsVD
dEA4FGNZ7C028v02eOZfBi0SuA2fQ4oewAD1xUiA49rLlXOf1g4i/ZhgJR3xHblP
V7Yuzlao63h5BHI3nWacsZucni/QjuS/6s0/Y+GvAZtIpyfN5paamFE8WjcQyVQ1
-----END RSA PRIVATE KEY-----
Certificate:
    Data:
        Version: 3 (0x2)
        Serial Number: 4096 (0x1000)
    Signature Algorithm: sha256WithRSAEncryption
        Issuer: C=AU, ST=Some-State, O=Internet Widgits Pty Ltd
        Validity
            Not Before: Apr 24 03:26:30 2022 GMT
            Not After : Apr 24 03:26:30 2023 GMT
        Subject: C=AU, ST=Some-State, O=Internet Widgits Pty Ltd, CN=SEEDPKILab2020.com
        Subject Public Key Info:
            Public Key Algorithm: rsaEncryption
                Public-Key: (1024 bit)
                Modulus:
                    00:c3:07:51:3e:3f:54:d7:05:8e:60:c0:d0:60:4e:
                    e1:58:11:78:e7:54:2b:2f:c8:e2:97:b3:f0:20:01:
                    99:f9:73:02:5d:da:44:28:86:0b:22:09:08:33:a1:
                    5c:e7:7d:4e:7b:e5:72:28:4b:07:70:2b:74:9c:0b:
                    31:ca:ec:40:b5:60:26:7c:b0:30:a6:a1:c9:53:b3:
                    67:58:65:c1:61:45:f4:77:10:21:d1:b1:29:54:99:
                    e0:39:fe:3f:8e:cd:2b:05:7f:da:d6:5f:46:b1:4f:
                    b7:1b:45:7e:0d:d7:7d:02:4a:6f:9c:6a:86:c0:33:
                    97:a6:5a:63:cc:52:dc:b4:41
                Exponent: 65537 (0x10001)
        X509v3 extensions:
            X509v3 Basic Constraints: 
                CA:FALSE
            Netscape Comment: 
                OpenSSL Generated Certificate
            X509v3 Subject Key Identifier: 
                A4:77:AA:42:B1:B4:3C:93:3D:42:1D:9B:DC:1C:C4:F3:A1:97:7A:49
            X509v3 Authority Key Identifier: 
                keyid:41:67:ED:65:D9:33:EC:A4:30:3E:5C:26:3B:4F:0B:C9:D9:74:B2:69

    Signature Algorithm: sha256WithRSAEncryption
         6c:c8:31:a9:e9:d5:89:d0:db:15:bc:92:58:c1:02:9a:8a:c1:
         f9:f1:4b:e6:90:42:43:1e:6f:c1:74:55:86:39:fb:da:84:1b:
         87:e8:91:a1:27:48:e7:8d:5b:92:3e:db:98:55:d6:79:10:64:
         40:66:ff:6e:52:82:15:d5:6e:ae:93:fb:48:0b:70:9d:b4:39:
         25:91:6e:c5:c1:4b:9d:0b:d3:48:75:95:ad:64:0a:d3:45:5a:
         64:48:fb:98:84:24:86:dd:7a:30:f0:27:63:a8:03:f7:84:67:
         c1:d6:d2:58:6a:17:b8:b5:2c:e1:f0:07:9d:84:4f:94:15:8f:
         ef:18:52:2e:2c:f4:a8:30:47:95:eb:c2:be:7a:3f:1f:69:7f:
         cd:ee:14:e6:34:58:1e:6f:cf:11:46:be:04:ce:7b:1f:d7:31:
         9c:c0:7c:d7:b3:bc:35:19:c9:cf:5e:34:e0:ee:7d:ef:50:cc:
         5e:4a:ce:25:39:26:72:f0:e9:ce:96:12:ce:a2:30:9f:fd:59:
         18:c3:7b:95:96:be:97:58:2e:18:0a:11:bc:16:34:6b:b2:6b:
         59:31:5c:0c:53:25:11:02:10:da:a5:92:6e:93:4e:8c:8a:bf:
         78:6d:d3:b1:9c:92:a9:cd:28:a4:8f:07:10:1a:39:32:86:37:
         d5:01:97:db
-----BEGIN CERTIFICATE-----
MIIDGjCCAgKgAwIBAgICEAAwDQYJKoZIhvcNAQELBQAwRTELMAkGA1UEBhMCQVUx
EzARBgNVBAgMClNvbWUtU3RhdGUxITAfBgNVBAoMGEludGVybmV0IFdpZGdpdHMg
UHR5IEx0ZDAeFw0yMjA0MjQwMzI2MzBaFw0yMzA0MjQwMzI2MzBaMGIxCzAJBgNV
BAYTAkFVMRMwEQYDVQQIDApTb21lLVN0YXRlMSEwHwYDVQQKDBhJbnRlcm5ldCBX
aWRnaXRzIFB0eSBMdGQxGzAZBgNVBAMMElNFRURQS0lMYWIyMDIwLmNvbTCBnzAN
BgkqhkiG9w0BAQEFAAOBjQAwgYkCgYEAwwdRPj9U1wWOYMDQYE7hWBF451QrL8ji
l7PwIAGZ+XMCXdpEKIYLIgkIM6Fc531Oe+VyKEsHcCt0nAsxyuxAtWAmfLAwpqHJ
U7NnWGXBYUX0dxAh0bEpVJngOf4/js0rBX/a1l9GsU+3G0V+Ddd9AkpvnGqGwDOX
plpjzFLctEECAwEAAaN7MHkwCQYDVR0TBAIwADAsBglghkgBhvhCAQ0EHxYdT3Bl
blNTTCBHZW5lcmF0ZWQgQ2VydGlmaWNhdGUwHQYDVR0OBBYEFKR3qkKxtDyTPUId
m9wcxPOhl3pJMB8GA1UdIwQYMBaAFEFn7WXZM+ykMD5cJjtPC8nZdLJpMA0GCSqG
SIb3DQEBCwUAA4IBAQBsyDGp6dWJ0NsVvJJYwQKaisH58UvmkEJDHm/BdFWGOfva
hBuH6JGhJ0jnjVuSPtuYVdZ5EGRAZv9uUoIV1W6uk/tIC3CdtDklkW7FwUudC9NI
dZWtZArTRVpkSPuYhCSG3Xow8CdjqAP3hGfB1tJYahe4tSzh8AedhE+UFY/vGFIu
LPSoMEeV68K+ej8faX/N7hTmNFgeb88RRr4Eznsf1zGcwHzXs7w1GcnPXjTg7n3v
UMxeSs4lOSZy8OnOlhLOojCf/VkYw3uVlr6XWC4YChG8FjRrsmtZMVwMUyURAhDa
pZJuk06Mir94bdOxnJKpzSikjwcQGjkyhjfVAZfb
-----END CERTIFICATE-----
