Certificate:
    Data:
        Version: 3 (0x2)
        Serial Number: 4096 (0x1000)
    Signature Algorithm: sha256WithRSAEncryption
        Issuer: C=AU, ST=Some-State, O=Internet Widgits Pty Ltd, CN=GaurishKorpal
        Validity
            Not Before: May  4 03:03:14 2022 GMT
            Not After : May  4 03:03:14 2023 GMT
        Subject: C=AU, ST=Some-State, O=Internet Widgits Pty Ltd, CN=gaurish-vpnserver2022.com
        Subject Public Key Info:
            Public Key Algorithm: rsaEncryption
                Public-Key: (1024 bit)
                Modulus:
                    00:b8:76:8b:5b:96:87:bf:f2:f7:66:17:f8:82:fe:
                    7a:b2:9c:ec:ee:5e:80:37:b0:ca:bd:4b:c9:9a:43:
                    96:b0:15:a1:0f:41:63:a6:73:59:c4:43:c9:ca:2e:
                    cc:81:11:53:a4:96:87:01:55:8e:1b:2c:68:e6:cb:
                    9e:7b:59:37:71:62:b3:56:f7:e1:4a:00:28:64:fd:
                    df:cf:2c:56:e0:60:28:f6:32:cd:9a:c9:37:23:17:
                    5b:c3:a7:3b:be:52:1f:17:6e:cc:12:1c:16:49:92:
                    9b:e9:e1:d3:68:00:3e:6e:51:0d:e4:1e:d8:86:4e:
                    9e:be:20:9a:06:0d:78:23:13
                Exponent: 65537 (0x10001)
        X509v3 extensions:
            X509v3 Basic Constraints: 
                CA:FALSE
            Netscape Comment: 
                OpenSSL Generated Certificate
            X509v3 Subject Key Identifier: 
                8A:55:0F:37:87:3E:62:E3:22:A8:78:D3:42:0D:8E:C6:A2:03:05:BC
            X509v3 Authority Key Identifier: 
                keyid:0E:48:4A:BB:4C:FA:54:66:13:C4:8A:E9:8B:74:94:7E:88:C8:FB:FD

    Signature Algorithm: sha256WithRSAEncryption
         59:07:9d:d7:95:01:3b:9a:d8:00:a4:fb:58:80:ea:00:49:26:
         66:a4:cb:63:07:63:c2:df:87:ab:bd:30:37:5e:e6:4b:a7:aa:
         19:0b:8f:bb:31:13:72:9a:85:ce:e9:0f:27:80:e0:c2:38:96:
         68:d6:c0:ac:3c:97:1b:90:0d:af:29:10:57:07:51:4c:b3:a3:
         33:ca:b5:81:39:ca:d0:6c:69:3d:e4:91:01:91:82:7c:6a:4a:
         aa:91:13:69:42:dd:52:3c:ba:8b:70:d5:a6:b3:4b:a0:4a:67:
         b1:fd:ae:52:47:62:1d:11:5b:70:f5:de:1b:13:32:cb:6e:70:
         bf:15:d8:09:ae:52:d1:68:a5:79:49:2b:db:2d:f8:cb:bc:d1:
         8c:24:0d:39:31:a1:4b:65:e4:0c:fc:53:99:db:4e:c3:ea:56:
         7a:ae:de:0c:d7:c4:cf:6b:c3:ed:50:f3:6e:49:d5:55:ab:37:
         8f:7d:cf:a1:cf:26:be:06:5b:48:4a:79:04:73:73:65:17:a3:
         a5:f1:39:0e:e6:23:51:2a:3e:fa:80:5e:b7:54:be:40:a2:63:
         08:89:dd:d8:48:4c:b2:1f:12:52:96:d4:fa:78:b4:d2:eb:9c:
         67:ac:34:95:ef:53:83:9f:f4:b6:66:c4:41:04:95:f6:70:f5:
         d8:9d:34:f1
-----BEGIN CERTIFICATE-----
MIIDOTCCAiGgAwIBAgICEAAwDQYJKoZIhvcNAQELBQAwXTELMAkGA1UEBhMCQVUx
EzARBgNVBAgMClNvbWUtU3RhdGUxITAfBgNVBAoMGEludGVybmV0IFdpZGdpdHMg
UHR5IEx0ZDEWMBQGA1UEAwwNR2F1cmlzaEtvcnBhbDAeFw0yMjA1MDQwMzAzMTRa
Fw0yMzA1MDQwMzAzMTRaMGkxCzAJBgNVBAYTAkFVMRMwEQYDVQQIDApTb21lLVN0
YXRlMSEwHwYDVQQKDBhJbnRlcm5ldCBXaWRnaXRzIFB0eSBMdGQxIjAgBgNVBAMM
GWdhdXJpc2gtdnBuc2VydmVyMjAyMi5jb20wgZ8wDQYJKoZIhvcNAQEBBQADgY0A
MIGJAoGBALh2i1uWh7/y92YX+IL+erKc7O5egDewyr1LyZpDlrAVoQ9BY6ZzWcRD
ycouzIERU6SWhwFVjhssaObLnntZN3Fis1b34UoAKGT9388sVuBgKPYyzZrJNyMX
W8OnO75SHxduzBIcFkmSm+nh02gAPm5RDeQe2IZOnr4gmgYNeCMTAgMBAAGjezB5
MAkGA1UdEwQCMAAwLAYJYIZIAYb4QgENBB8WHU9wZW5TU0wgR2VuZXJhdGVkIENl
cnRpZmljYXRlMB0GA1UdDgQWBBSKVQ83hz5i4yKoeNNCDY7GogMFvDAfBgNVHSME
GDAWgBQOSEq7TPpUZhPEiumLdJR+iMj7/TANBgkqhkiG9w0BAQsFAAOCAQEAWQed
15UBO5rYAKT7WIDqAEkmZqTLYwdjwt+Hq70wN17mS6eqGQuPuzETcpqFzukPJ4Dg
wjiWaNbArDyXG5ANrykQVwdRTLOjM8q1gTnK0GxpPeSRAZGCfGpKqpETaULdUjy6
i3DVprNLoEpnsf2uUkdiHRFbcPXeGxMyy25wvxXYCa5S0WileUkr2y34y7zRjCQN
OTGhS2XkDPxTmdtOw+pWeq7eDNfEz2vD7VDzbknVVas3j33Poc8mvgZbSEp5BHNz
ZRejpfE5DuYjUSo++oBet1S+QKJjCInd2EhMsh8SUpbU+ni00uucZ6w0le9Tg5/0
tmbEQQSV9nD12J008Q==
-----END CERTIFICATE-----
